target datalayout = "e-m:e-p270:32:32-p271:32:32-p272:64:64-i64:64-i128:128-f80:128-n8:16:32:64-S128"
target triple = "x86_64-pc-linux-gnu"

@.str = private unnamed_addr constant [31 x i8] c"Failed to get device count: %s\00", align 1

; Function Attrs: nounwind uwtable
define dso_local void @gpu_p_get_device_count(ptr noundef %0) #0 {
  %2 = alloca ptr, align 8
  %3 = alloca ptr, align 8
  %4 = alloca i32, align 4
  store ptr %0, ptr %2, align 8
  call void @llvm.lifetime.start.p0(i64 8, ptr %3) #7
  %5 = load ptr, ptr %2, align 8
  store ptr %5, ptr %3, align 8
  call void @llvm.lifetime.start.p0(i64 4, ptr %4) #7
  %6 = load ptr, ptr %3, align 8
  %7 = call i32 @nvmlDeviceGetCount_v2(ptr noundef %6)
  store i32 %7, ptr %4, align 4
  %8 = load i32, ptr %4, align 4
  %9 = icmp ne i32 %8, 0
  br i1 %9, label %10, label %15

10:                                               ; preds = %1
  %11 = load i32, ptr %4, align 4
  %12 = call ptr @nvmlErrorString(i32 noundef %11)
  %13 = call i32 (ptr, ...) @slurm_error(ptr noundef @.str, ptr noundef %12)
  %14 = load ptr, ptr %2, align 8
  store i32 0, ptr %14, align 4
  br label %15

15:                                               ; preds = %10, %1
  call void @llvm.lifetime.end.p0(i64 4, ptr %4) #7
  call void @llvm.lifetime.end.p0(i64 8, ptr %3) #7
  ret void
}