; Function Attrs: nounwind uwtable
define dso_local void @gpu_p_get_device_count(ptr noundef %0) local_unnamed_addr #0 {
  %2 = tail call i32 @nvmlDeviceGetCount_v2(ptr noundef %0) #12
  %.not = icmp eq i32 %2, 0
  br i1 %.not, label %6, label %3

3:                                                ; preds = %1
  %4 = tail call ptr @nvmlErrorString(i32 noundef %2) #12
  %5 = tail call i32 (ptr, ...) @slurm_error(ptr noundef nonnull @.str, ptr noundef %4) #12
  store i32 0, ptr %0, align 4
  br label %6

6:                                                ; preds = %3, %1
  ret void
}